target datalayout = "e-m:e-p270:32:32-p271:32:32-p272:64:64-i64:64-i128:128-f80:128-n8:16:32:64-S128"
target triple = "x86_64-pc-linux-gnu"

@.str.189 = private unnamed_addr constant [6 x i8] c"%02X \00", align 1

; Function Attrs: nounwind uwtable
define dso_local void @hex_prin(ptr noundef %0, ptr noundef %1, i32 noundef %2) #0 {
  %4 = alloca ptr, align 8
  %5 = alloca ptr, align 8
  %6 = alloca i32, align 4
  %7 = alloca i32, align 4
  store ptr %0, ptr %4, align 8, !tbaa !15
  store ptr %1, ptr %5, align 8, !tbaa !11
  store i32 %2, ptr %6, align 4, !tbaa !4
  call void @llvm.lifetime.start.p0(i64 4, ptr %7) #6
  store i32 0, ptr %7, align 4, !tbaa !4
  br label %8

8:                                                ; preds = %21, %3
  %9 = load i32, ptr %7, align 4, !tbaa !4
  %10 = load i32, ptr %6, align 4, !tbaa !4
  %11 = icmp slt i32 %9, %10
  br i1 %11, label %12, label %24

12:                                               ; preds = %8
  %13 = load ptr, ptr %4, align 8, !tbaa !15
  %14 = load ptr, ptr %5, align 8, !tbaa !11
  %15 = load i32, ptr %7, align 4, !tbaa !4
  %16 = sext i32 %15 to i64
  %17 = getelementptr inbounds i8, ptr %14, i64 %16
  %18 = load i8, ptr %17, align 1, !tbaa !49
  %19 = zext i8 %18 to i32
  %20 = call i32 (ptr, ptr, ...) @BIO_printf(ptr noundef %13, ptr noundef @.str.189, i32 noundef %19)
  br label %21

21:                                               ; preds = %12
  %22 = load i32, ptr %7, align 4, !tbaa !4
  %23 = add nsw i32 %22, 1
  store i32 %23, ptr %7, align 4, !tbaa !4
  br label %8, !llvm.loop !116

24:                                               ; preds = %8
  call void @llvm.lifetime.end.p0(i64 4, ptr %7) #6
  ret void
}